target datalayout = "e-m:e-p270:32:32-p271:32:32-p272:64:64-i64:64-i128:128-f80:128-n8:16:32:64-S128"
target triple = "x86_64-pc-linux-gnu"

; Function Attrs: nounwind uwtable
define dso_local i64 @rdbLoadLen(ptr noundef %0, ptr noundef %1) #0 {
  %3 = alloca i64, align 8
  %4 = alloca ptr, align 8
  %5 = alloca ptr, align 8
  %6 = alloca i64, align 8
  %7 = alloca i32, align 4
  store ptr %0, ptr %4, align 8, !tbaa !53
  store ptr %1, ptr %5, align 8, !tbaa !69
  call void @llvm.lifetime.start.p0(i64 8, ptr %6) #15
  %8 = load ptr, ptr %4, align 8, !tbaa !53
  %9 = load ptr, ptr %5, align 8, !tbaa !69
  %10 = call i32 @rdbLoadLenByRef(ptr noundef %8, ptr noundef %9, ptr noundef %6)
  %11 = icmp eq i32 %10, -1
  br i1 %11, label %12, label %13

12:                                               ; preds = %2
  store i64 -1, ptr %3, align 8
  store i32 1, ptr %7, align 4
  br label %15

13:                                               ; preds = %2
  %14 = load i64, ptr %6, align 8, !tbaa !56
  store i64 %14, ptr %3, align 8
  store i32 1, ptr %7, align 4
  br label %15

15:                                               ; preds = %13, %12
  call void @llvm.lifetime.end.p0(i64 8, ptr %6) #15
  %16 = load i64, ptr %3, align 8
  ret i64 %16
}