; Function Attrs: nounwind uwtable
define dso_local i64 @rdbLoadLen(ptr noundef %0, ptr noundef captures(address_is_null) %1) local_unnamed_addr #0 {
  %3 = alloca i64, align 8
  call void @llvm.lifetime.start.p0(i64 8, ptr nonnull %3) #23
  %4 = call i32 @rdbLoadLenByRef(ptr noundef %0, ptr noundef %1, ptr noundef nonnull %3)
  %5 = icmp eq i32 %4, -1
  %6 = load i64, ptr %3, align 8
  %.0 = select i1 %5, i64 -1, i64 %6
  call void @llvm.lifetime.end.p0(i64 8, ptr nonnull %3) #23
  ret i64 %.0
}